target datalayout = "e-m:e-p270:32:32-p271:32:32-p272:64:64-i64:64-i128:128-f80:128-n8:16:32:64-S128"
target triple = "x86_64-pc-linux-gnu"

; Function Attrs: mustprogress uwtable
define dso_local void @_ZN15PartialExpander8init_mapERSt3mapI14eStatementTypebSt4lessIS1_ESaISt4pairIKS1_bEEEb(ptr noundef nonnull align 8 dereferenceable(48) %0, i1 noundef zeroext %1) #5 align 2 {
  %3 = alloca ptr, align 8
  %4 = alloca i8, align 1
  %5 = alloca i32, align 4
  %6 = alloca i32, align 4
  %7 = alloca i32, align 4
  %8 = alloca i32, align 4
  %9 = alloca i32, align 4
  %10 = alloca i32, align 4
  %11 = alloca i32, align 4
  store ptr %0, ptr %3, align 8, !tbaa !4
  %12 = zext i1 %1 to i8
  store i8 %12, ptr %4, align 1, !tbaa !31
  %13 = load i8, ptr %4, align 1, !tbaa !31, !range !17, !noundef !18
  %14 = trunc i8 %13 to i1
  %15 = load ptr, ptr %3, align 8, !tbaa !4
  call void @llvm.lifetime.start.p0(i64 4, ptr %5) #3
  store i32 0, ptr %5, align 4, !tbaa !33
  %16 = call noundef nonnull align 1 dereferenceable(1) ptr @_ZNSt3mapI14eStatementTypebSt4lessIS0_ESaISt4pairIKS0_bEEEixEOS0_(ptr noundef nonnull align 8 dereferenceable(48) %15, ptr noundef nonnull align 4 dereferenceable(4) %5)
  %17 = zext i1 %14 to i8
  store i8 %17, ptr %16, align 1, !tbaa !31
  call void @llvm.lifetime.end.p0(i64 4, ptr %5) #3
  %18 = load i8, ptr %4, align 1, !tbaa !31, !range !17, !noundef !18
  %19 = trunc i8 %18 to i1
  %20 = load ptr, ptr %3, align 8, !tbaa !4
  call void @llvm.lifetime.start.p0(i64 4, ptr %6) #3
  store i32 1, ptr %6, align 4, !tbaa !33
  %21 = call noundef nonnull align 1 dereferenceable(1) ptr @_ZNSt3mapI14eStatementTypebSt4lessIS0_ESaISt4pairIKS0_bEEEixEOS0_(ptr noundef nonnull align 8 dereferenceable(48) %20, ptr noundef nonnull align 4 dereferenceable(4) %6)
  %22 = zext i1 %19 to i8
  store i8 %22, ptr %21, align 1, !tbaa !31
  call void @llvm.lifetime.end.p0(i64 4, ptr %6) #3
  %23 = load i8, ptr %4, align 1, !tbaa !31, !range !17, !noundef !18
  %24 = trunc i8 %23 to i1
  %25 = load ptr, ptr %3, align 8, !tbaa !4
  call void @llvm.lifetime.start.p0(i64 4, ptr %7) #3
  store i32 2, ptr %7, align 4, !tbaa !33
  %26 = call noundef nonnull align 1 dereferenceable(1) ptr @_ZNSt3mapI14eStatementTypebSt4lessIS0_ESaISt4pairIKS0_bEEEixEOS0_(ptr noundef nonnull align 8 dereferenceable(48) %25, ptr noundef nonnull align 4 dereferenceable(4) %7)
  %27 = zext i1 %24 to i8
  store i8 %27, ptr %26, align 1, !tbaa !31
  call void @llvm.lifetime.end.p0(i64 4, ptr %7) #3
  %28 = load i8, ptr %4, align 1, !tbaa !31, !range !17, !noundef !18
  %29 = trunc i8 %28 to i1
  %30 = load ptr, ptr %3, align 8, !tbaa !4
  call void @llvm.lifetime.start.p0(i64 4, ptr %8) #3
  store i32 3, ptr %8, align 4, !tbaa !33
  %31 = call noundef nonnull align 1 dereferenceable(1) ptr @_ZNSt3mapI14eStatementTypebSt4lessIS0_ESaISt4pairIKS0_bEEEixEOS0_(ptr noundef nonnull align 8 dereferenceable(48) %30, ptr noundef nonnull align 4 dereferenceable(4) %8)
  %32 = zext i1 %29 to i8
  store i8 %32, ptr %31, align 1, !tbaa !31
  call void @llvm.lifetime.end.p0(i64 4, ptr %8) #3
  %33 = load i8, ptr %4, align 1, !tbaa !31, !range !17, !noundef !18
  %34 = trunc i8 %33 to i1
  %35 = load ptr, ptr %3, align 8, !tbaa !4
  call void @llvm.lifetime.start.p0(i64 4, ptr %9) #3
  store i32 4, ptr %9, align 4, !tbaa !33
  %36 = call noundef nonnull align 1 dereferenceable(1) ptr @_ZNSt3mapI14eStatementTypebSt4lessIS0_ESaISt4pairIKS0_bEEEixEOS0_(ptr noundef nonnull align 8 dereferenceable(48) %35, ptr noundef nonnull align 4 dereferenceable(4) %9)
  %37 = zext i1 %34 to i8
  store i8 %37, ptr %36, align 1, !tbaa !31
  call void @llvm.lifetime.end.p0(i64 4, ptr %9) #3
  %38 = load i8, ptr %4, align 1, !tbaa !31, !range !17, !noundef !18
  %39 = trunc i8 %38 to i1
  %40 = load ptr, ptr %3, align 8, !tbaa !4
  call void @llvm.lifetime.start.p0(i64 4, ptr %10) #3
  store i32 5, ptr %10, align 4, !tbaa !33
  %41 = call noundef nonnull align 1 dereferenceable(1) ptr @_ZNSt3mapI14eStatementTypebSt4lessIS0_ESaISt4pairIKS0_bEEEixEOS0_(ptr noundef nonnull align 8 dereferenceable(48) %40, ptr noundef nonnull align 4 dereferenceable(4) %10)
  %42 = zext i1 %39 to i8
  store i8 %42, ptr %41, align 1, !tbaa !31
  call void @llvm.lifetime.end.p0(i64 4, ptr %10) #3
  %43 = load i8, ptr %4, align 1, !tbaa !31, !range !17, !noundef !18
  %44 = trunc i8 %43 to i1
  %45 = load ptr, ptr %3, align 8, !tbaa !4
  call void @llvm.lifetime.start.p0(i64 4, ptr %11) #3
  store i32 10, ptr %11, align 4, !tbaa !33
  %46 = call noundef nonnull align 1 dereferenceable(1) ptr @_ZNSt3mapI14eStatementTypebSt4lessIS0_ESaISt4pairIKS0_bEEEixEOS0_(ptr noundef nonnull align 8 dereferenceable(48) %45, ptr noundef nonnull align 4 dereferenceable(4) %11)
  %47 = zext i1 %44 to i8
  store i8 %47, ptr %46, align 1, !tbaa !31
  call void @llvm.lifetime.end.p0(i64 4, ptr %11) #3
  ret void
}