; Function Attrs: mustprogress uwtable
define dso_local void @_ZN15PartialExpander8init_mapERSt3mapI14eStatementTypebSt4lessIS1_ESaISt4pairIKS1_bEEEb(ptr noundef nonnull align 8 dereferenceable(48) %0, i1 noundef zeroext %1) local_unnamed_addr #4 align 2 {
  %3 = alloca i32, align 4
  %4 = alloca i32, align 4
  %5 = alloca i32, align 4
  %6 = alloca i32, align 4
  %7 = alloca i32, align 4
  %8 = alloca i32, align 4
  %9 = alloca i32, align 4
  %10 = zext i1 %1 to i8
  call void @llvm.lifetime.start.p0(i64 4, ptr nonnull %3) #21
  store i32 0, ptr %3, align 4, !tbaa !48
  %11 = call noundef nonnull align 1 dereferenceable(1) ptr @_ZNSt3mapI14eStatementTypebSt4lessIS0_ESaISt4pairIKS0_bEEEixEOS0_(ptr noundef nonnull align 8 dereferenceable(48) %0, ptr noundef nonnull align 4 dereferenceable(4) %3)
  store i8 %10, ptr %11, align 1, !tbaa !49
  call void @llvm.lifetime.end.p0(i64 4, ptr nonnull %3) #21
  call void @llvm.lifetime.start.p0(i64 4, ptr nonnull %4) #21
  store i32 1, ptr %4, align 4, !tbaa !48
  %12 = call noundef nonnull align 1 dereferenceable(1) ptr @_ZNSt3mapI14eStatementTypebSt4lessIS0_ESaISt4pairIKS0_bEEEixEOS0_(ptr noundef nonnull align 8 dereferenceable(48) %0, ptr noundef nonnull align 4 dereferenceable(4) %4)
  store i8 %10, ptr %12, align 1, !tbaa !49
  call void @llvm.lifetime.end.p0(i64 4, ptr nonnull %4) #21
  call void @llvm.lifetime.start.p0(i64 4, ptr nonnull %5) #21
  store i32 2, ptr %5, align 4, !tbaa !48
  %13 = call noundef nonnull align 1 dereferenceable(1) ptr @_ZNSt3mapI14eStatementTypebSt4lessIS0_ESaISt4pairIKS0_bEEEixEOS0_(ptr noundef nonnull align 8 dereferenceable(48) %0, ptr noundef nonnull align 4 dereferenceable(4) %5)
  store i8 %10, ptr %13, align 1, !tbaa !49
  call void @llvm.lifetime.end.p0(i64 4, ptr nonnull %5) #21
  call void @llvm.lifetime.start.p0(i64 4, ptr nonnull %6) #21
  store i32 3, ptr %6, align 4, !tbaa !48
  %14 = call noundef nonnull align 1 dereferenceable(1) ptr @_ZNSt3mapI14eStatementTypebSt4lessIS0_ESaISt4pairIKS0_bEEEixEOS0_(ptr noundef nonnull align 8 dereferenceable(48) %0, ptr noundef nonnull align 4 dereferenceable(4) %6)
  store i8 %10, ptr %14, align 1, !tbaa !49
  call void @llvm.lifetime.end.p0(i64 4, ptr nonnull %6) #21
  call void @llvm.lifetime.start.p0(i64 4, ptr nonnull %7) #21
  store i32 4, ptr %7, align 4, !tbaa !48
  %15 = call noundef nonnull align 1 dereferenceable(1) ptr @_ZNSt3mapI14eStatementTypebSt4lessIS0_ESaISt4pairIKS0_bEEEixEOS0_(ptr noundef nonnull align 8 dereferenceable(48) %0, ptr noundef nonnull align 4 dereferenceable(4) %7)
  store i8 %10, ptr %15, align 1, !tbaa !49
  call void @llvm.lifetime.end.p0(i64 4, ptr nonnull %7) #21
  call void @llvm.lifetime.start.p0(i64 4, ptr nonnull %8) #21
  store i32 5, ptr %8, align 4, !tbaa !48
  %16 = call noundef nonnull align 1 dereferenceable(1) ptr @_ZNSt3mapI14eStatementTypebSt4lessIS0_ESaISt4pairIKS0_bEEEixEOS0_(ptr noundef nonnull align 8 dereferenceable(48) %0, ptr noundef nonnull align 4 dereferenceable(4) %8)
  store i8 %10, ptr %16, align 1, !tbaa !49
  call void @llvm.lifetime.end.p0(i64 4, ptr nonnull %8) #21
  call void @llvm.lifetime.start.p0(i64 4, ptr nonnull %9) #21
  store i32 10, ptr %9, align 4, !tbaa !48
  %17 = call noundef nonnull align 1 dereferenceable(1) ptr @_ZNSt3mapI14eStatementTypebSt4lessIS0_ESaISt4pairIKS0_bEEEixEOS0_(ptr noundef nonnull align 8 dereferenceable(48) %0, ptr noundef nonnull align 4 dereferenceable(4) %9)
  store i8 %10, ptr %17, align 1, !tbaa !49
  call void @llvm.lifetime.end.p0(i64 4, ptr nonnull %9) #21
  ret void
}